target datalayout = "e-m:e-p270:32:32-p271:32:32-p272:64:64-i64:64-i128:128-f80:128-n8:16:32:64-S128"
target triple = "x86_64-pc-linux-gnu"

%"class.std::__cxx11::basic_string" = type { %"struct.std::__cxx11::basic_string<char>::_Alloc_hider", i64, %union.anon }
%"struct.std::__cxx11::basic_string<char>::_Alloc_hider" = type { ptr }
%union.anon = type { i64, [8 x i8] }
%"struct.cvc5::parser::Location" = type { i32, i32 }
%"struct.cvc5::parser::Span" = type { %"struct.cvc5::parser::Location", %"struct.cvc5::parser::Location" }
%"class.cvc5::parser::Lexer" = type <{ ptr, %"struct.cvc5::parser::Span", %"class.std::__cxx11::basic_string", %"class.std::vector", ptr, i8, [32768 x i8], [7 x i8], i64, i64, i32, i8, [3 x i8], i32, [4 x i8] }>
%"class.std::vector" = type { %"struct.std::_Vector_base" }
%"struct.std::_Vector_base" = type { %"struct.std::_Vector_base<cvc5::parser::Token, std::allocator<cvc5::parser::Token>>::_Vector_impl" }
%"struct.std::_Vector_base<cvc5::parser::Token, std::allocator<cvc5::parser::Token>>::_Vector_impl" = type { %"struct.std::_Vector_base<cvc5::parser::Token, std::allocator<cvc5::parser::Token>>::_Vector_impl_data" }
%"struct.std::_Vector_base<cvc5::parser::Token, std::allocator<cvc5::parser::Token>>::_Vector_impl_data" = type { ptr, ptr, ptr }

; Function Attrs: mustprogress nounwind uwtable
define hidden void @_ZN4cvc56parser5Lexer8initSpanEv(ptr noundef nonnull align 8 dereferenceable(32892) %0) #6 align 2 {
  %2 = alloca ptr, align 8
  store ptr %0, ptr %2, align 8, !tbaa !21
  %3 = load ptr, ptr %2, align 8
  %4 = getelementptr inbounds nuw %"class.cvc5::parser::Lexer", ptr %3, i32 0, i32 1
  %5 = getelementptr inbounds nuw %"struct.cvc5::parser::Span", ptr %4, i32 0, i32 0
  %6 = getelementptr inbounds nuw %"struct.cvc5::parser::Location", ptr %5, i32 0, i32 0
  store i32 1, ptr %6, align 8, !tbaa !77
  %7 = getelementptr inbounds nuw %"class.cvc5::parser::Lexer", ptr %3, i32 0, i32 1
  %8 = getelementptr inbounds nuw %"struct.cvc5::parser::Span", ptr %7, i32 0, i32 0
  %9 = getelementptr inbounds nuw %"struct.cvc5::parser::Location", ptr %8, i32 0, i32 1
  store i32 0, ptr %9, align 4, !tbaa !78
  %10 = getelementptr inbounds nuw %"class.cvc5::parser::Lexer", ptr %3, i32 0, i32 1
  %11 = getelementptr inbounds nuw %"struct.cvc5::parser::Span", ptr %10, i32 0, i32 1
  %12 = getelementptr inbounds nuw %"struct.cvc5::parser::Location", ptr %11, i32 0, i32 0
  store i32 1, ptr %12, align 8, !tbaa !81
  %13 = getelementptr inbounds nuw %"class.cvc5::parser::Lexer", ptr %3, i32 0, i32 1
  %14 = getelementptr inbounds nuw %"struct.cvc5::parser::Span", ptr %13, i32 0, i32 1
  %15 = getelementptr inbounds nuw %"struct.cvc5::parser::Location", ptr %14, i32 0, i32 1
  store i32 0, ptr %15, align 4, !tbaa !82
  ret void
}